target datalayout = "e-m:e-p270:32:32-p271:32:32-p272:64:64-i64:64-i128:128-f80:128-n8:16:32:64-S128"
target triple = "x86_64-unknown-linux-gnu"

%"class.rocksdb::(anonymous namespace)::HashLinkListRep::LinkListIterator" = type { %"class.rocksdb::MemTableRep::Iterator", ptr, ptr, ptr }
%"class.rocksdb::MemTableRep::Iterator" = type { ptr }
%"class.rocksdb::SkipList<const char *, const rocksdb::MemTableRep::KeyComparator &>::Iterator" = type { ptr, ptr }
%"class.rocksdb::(anonymous namespace)::HashLinkListRep::DynamicIterator" = type { %"class.rocksdb::(anonymous namespace)::HashLinkListRep::LinkListIterator", ptr, %"class.std::unique_ptr.66" }
%"class.std::unique_ptr.66" = type { %"struct.std::__uniq_ptr_data.67" }
%"struct.std::__uniq_ptr_data.67" = type { %"class.std::__uniq_ptr_impl.68" }
%"class.std::__uniq_ptr_impl.68" = type { %"class.std::tuple.69" }
%"class.std::tuple.69" = type { %"struct.std::_Tuple_impl.70" }
%"struct.std::_Tuple_impl.70" = type { %"struct.std::_Head_base.73" }
%"struct.std::_Head_base.73" = type { ptr }

; Function Attrs: mustprogress nounwind uwtable
define linkonce_odr noundef nonnull align 8 dereferenceable(8) ptr @_ZNSt10_Head_baseILm0EPN7rocksdb8SkipListIPKcRKNS0_11MemTableRep13KeyComparatorEE8IteratorELb0EE7_M_headERKSB_(ptr noundef nonnull align 8 dereferenceable(8) %__b) #1 comdat align 2 {
entry:
  %__b.addr = alloca ptr, align 8
  store ptr %__b, ptr %__b.addr, align 8
  %0 = load ptr, ptr %__b.addr, align 8
  %_M_head_impl = getelementptr inbounds %"struct.std::_Head_base.73", ptr %0, i32 0, i32 0
  ret ptr %_M_head_impl
}

; Function Attrs: mustprogress nounwind uwtable
define linkonce_odr noundef nonnull align 8 dereferenceable(8) ptr @_ZNSt11_Tuple_implILm0EJPN7rocksdb8SkipListIPKcRKNS0_11MemTableRep13KeyComparatorEE8IteratorESt14default_deleteIS9_EEE7_M_headERKSD_(ptr noundef nonnull align 8 dereferenceable(8) %__t) #1 comdat align 2 {
entry:
  %__t.addr = alloca ptr, align 8
  store ptr %__t, ptr %__t.addr, align 8
  %0 = load ptr, ptr %__t.addr, align 8
  %call = call noundef nonnull align 8 dereferenceable(8) ptr @_ZNSt10_Head_baseILm0EPN7rocksdb8SkipListIPKcRKNS0_11MemTableRep13KeyComparatorEE8IteratorELb0EE7_M_headERKSB_(ptr noundef nonnull align 8 dereferenceable(8) %0) #3
  ret ptr %call
}

; Function Attrs: mustprogress nounwind uwtable
define linkonce_odr noundef nonnull align 8 dereferenceable(8) ptr @_ZSt12__get_helperILm0EPN7rocksdb8SkipListIPKcRKNS0_11MemTableRep13KeyComparatorEE8IteratorEJSt14default_deleteIS9_EEERKT0_RKSt11_Tuple_implIXT_EJSD_DpT1_EE(ptr noundef nonnull align 8 dereferenceable(8) %__t) #1 comdat {
entry:
  %__t.addr = alloca ptr, align 8
  store ptr %__t, ptr %__t.addr, align 8
  %0 = load ptr, ptr %__t.addr, align 8
  %call = call noundef nonnull align 8 dereferenceable(8) ptr @_ZNSt11_Tuple_implILm0EJPN7rocksdb8SkipListIPKcRKNS0_11MemTableRep13KeyComparatorEE8IteratorESt14default_deleteIS9_EEE7_M_headERKSD_(ptr noundef nonnull align 8 dereferenceable(8) %0) #3
  ret ptr %call
}

; Function Attrs: mustprogress nounwind uwtable
define linkonce_odr noundef nonnull align 8 dereferenceable(8) ptr @_ZSt3getILm0EJPN7rocksdb8SkipListIPKcRKNS0_11MemTableRep13KeyComparatorEE8IteratorESt14default_deleteIS9_EEERKNSt13tuple_elementIXT_ESt5tupleIJDpT0_EEE4typeERKSH_(ptr noundef nonnull align 8 dereferenceable(8) %__t) #1 comdat {
entry:
  %__t.addr = alloca ptr, align 8
  store ptr %__t, ptr %__t.addr, align 8
  %0 = load ptr, ptr %__t.addr, align 8
  %call = call noundef nonnull align 8 dereferenceable(8) ptr @_ZSt12__get_helperILm0EPN7rocksdb8SkipListIPKcRKNS0_11MemTableRep13KeyComparatorEE8IteratorEJSt14default_deleteIS9_EEERKT0_RKSt11_Tuple_implIXT_EJSD_DpT1_EE(ptr noundef nonnull align 8 dereferenceable(8) %0) #3
  ret ptr %call
}

; Function Attrs: mustprogress nounwind uwtable
define linkonce_odr noundef ptr @_ZNKSt15__uniq_ptr_implIN7rocksdb8SkipListIPKcRKNS0_11MemTableRep13KeyComparatorEE8IteratorESt14default_deleteIS9_EE6_M_ptrEv(ptr noundef nonnull align 8 dereferenceable(8) %this) #1 comdat align 2 {
entry:
  %this.addr = alloca ptr, align 8
  store ptr %this, ptr %this.addr, align 8
  %this1 = load ptr, ptr %this.addr, align 8
  %_M_t = getelementptr inbounds %"class.std::__uniq_ptr_impl.68", ptr %this1, i32 0, i32 0
  %call = call noundef nonnull align 8 dereferenceable(8) ptr @_ZSt3getILm0EJPN7rocksdb8SkipListIPKcRKNS0_11MemTableRep13KeyComparatorEE8IteratorESt14default_deleteIS9_EEERKNSt13tuple_elementIXT_ESt5tupleIJDpT0_EEE4typeERKSH_(ptr noundef nonnull align 8 dereferenceable(8) %_M_t) #3
  %0 = load ptr, ptr %call, align 8
  ret ptr %0
}

; Function Attrs: mustprogress nounwind uwtable
define linkonce_odr noundef ptr @_ZNKSt10unique_ptrIN7rocksdb8SkipListIPKcRKNS0_11MemTableRep13KeyComparatorEE8IteratorESt14default_deleteIS9_EE3getEv(ptr noundef nonnull align 8 dereferenceable(8) %this) #1 comdat align 2 {
entry:
  %this.addr = alloca ptr, align 8
  store ptr %this, ptr %this.addr, align 8
  %this1 = load ptr, ptr %this.addr, align 8
  %_M_t = getelementptr inbounds %"class.std::unique_ptr.66", ptr %this1, i32 0, i32 0
  %call = call noundef ptr @_ZNKSt15__uniq_ptr_implIN7rocksdb8SkipListIPKcRKNS0_11MemTableRep13KeyComparatorEE8IteratorESt14default_deleteIS9_EE6_M_ptrEv(ptr noundef nonnull align 8 dereferenceable(8) %_M_t) #3
  ret ptr %call
}

; Function Attrs: mustprogress nounwind uwtable
define internal noundef zeroext i1 @_ZNK7rocksdb12_GLOBAL__N_115HashLinkListRep16LinkListIterator5ValidEv(ptr noundef nonnull align 8 dereferenceable(32) %this) unnamed_addr #1 align 2 {
entry:
  %this.addr = alloca ptr, align 8
  store ptr %this, ptr %this.addr, align 8
  %this1 = load ptr, ptr %this.addr, align 8
  %node_ = getelementptr inbounds %"class.rocksdb::(anonymous namespace)::HashLinkListRep::LinkListIterator", ptr %this1, i32 0, i32 3
  %0 = load ptr, ptr %node_, align 8
  %cmp = icmp ne ptr %0, null
  ret i1 %cmp
}

; Function Attrs: mustprogress nounwind uwtable
define linkonce_odr noundef zeroext i1 @_ZNK7rocksdb8SkipListIPKcRKNS_11MemTableRep13KeyComparatorEE8Iterator5ValidEv(ptr noundef nonnull align 8 dereferenceable(16) %this) #1 comdat align 2 {
entry:
  %this.addr = alloca ptr, align 8
  store ptr %this, ptr %this.addr, align 8
  %this1 = load ptr, ptr %this.addr, align 8
  %node_ = getelementptr inbounds %"class.rocksdb::SkipList<const char *, const rocksdb::MemTableRep::KeyComparator &>::Iterator", ptr %this1, i32 0, i32 1
  %0 = load ptr, ptr %node_, align 8
  %cmp = icmp ne ptr %0, null
  ret i1 %cmp
}

; Function Attrs: mustprogress nounwind uwtable
define linkonce_odr noundef ptr @_ZNKSt10unique_ptrIN7rocksdb8SkipListIPKcRKNS0_11MemTableRep13KeyComparatorEE8IteratorESt14default_deleteIS9_EEptEv(ptr noundef nonnull align 8 dereferenceable(8) %this) #1 comdat align 2 {
entry:
  %this.addr = alloca ptr, align 8
  store ptr %this, ptr %this.addr, align 8
  %this1 = load ptr, ptr %this.addr, align 8
  %call = call noundef ptr @_ZNKSt10unique_ptrIN7rocksdb8SkipListIPKcRKNS0_11MemTableRep13KeyComparatorEE8IteratorESt14default_deleteIS9_EE3getEv(ptr noundef nonnull align 8 dereferenceable(8) %this1) #3
  ret ptr %call
}

; Function Attrs: mustprogress nounwind uwtable
define linkonce_odr noundef zeroext i1 @_ZNKSt10unique_ptrIN7rocksdb8SkipListIPKcRKNS0_11MemTableRep13KeyComparatorEE8IteratorESt14default_deleteIS9_EEcvbEv(ptr noundef nonnull align 8 dereferenceable(8) %this) #1 comdat align 2 {
entry:
  %this.addr = alloca ptr, align 8
  store ptr %this, ptr %this.addr, align 8
  %this1 = load ptr, ptr %this.addr, align 8
  %call = call noundef ptr @_ZNKSt10unique_ptrIN7rocksdb8SkipListIPKcRKNS0_11MemTableRep13KeyComparatorEE8IteratorESt14default_deleteIS9_EE3getEv(ptr noundef nonnull align 8 dereferenceable(8) %this1) #3
  %cmp = icmp eq ptr %call, null
  %cond = select i1 %cmp, i1 false, i1 true
  ret i1 %cond
}

; Function Attrs: mustprogress nounwind uwtable
define internal noundef zeroext i1 @_ZNK7rocksdb12_GLOBAL__N_115HashLinkListRep15DynamicIterator5ValidEv(ptr noundef nonnull align 8 dereferenceable(48) %this) unnamed_addr #1 align 2 {
entry:
  %retval = alloca i1, align 1
  %this.addr = alloca ptr, align 8
  store ptr %this, ptr %this.addr, align 8
  %this1 = load ptr, ptr %this.addr, align 8
  %skip_list_iter_ = getelementptr inbounds %"class.rocksdb::(anonymous namespace)::HashLinkListRep::DynamicIterator", ptr %this1, i32 0, i32 2
  %call = call noundef zeroext i1 @_ZNKSt10unique_ptrIN7rocksdb8SkipListIPKcRKNS0_11MemTableRep13KeyComparatorEE8IteratorESt14default_deleteIS9_EEcvbEv(ptr noundef nonnull align 8 dereferenceable(8) %skip_list_iter_) #3
  br i1 %call, label %if.then, label %if.end

if.then:                                          ; preds = %entry
  %skip_list_iter_2 = getelementptr inbounds %"class.rocksdb::(anonymous namespace)::HashLinkListRep::DynamicIterator", ptr %this1, i32 0, i32 2
  %call3 = call noundef ptr @_ZNKSt10unique_ptrIN7rocksdb8SkipListIPKcRKNS0_11MemTableRep13KeyComparatorEE8IteratorESt14default_deleteIS9_EEptEv(ptr noundef nonnull align 8 dereferenceable(8) %skip_list_iter_2) #3
  %call4 = call noundef zeroext i1 @_ZNK7rocksdb8SkipListIPKcRKNS_11MemTableRep13KeyComparatorEE8Iterator5ValidEv(ptr noundef nonnull align 8 dereferenceable(16) %call3)
  store i1 %call4, ptr %retval, align 1
  br label %return

if.end:                                           ; preds = %entry
  %call5 = call noundef zeroext i1 @_ZNK7rocksdb12_GLOBAL__N_115HashLinkListRep16LinkListIterator5ValidEv(ptr noundef nonnull align 8 dereferenceable(32) %this1)
  store i1 %call5, ptr %retval, align 1
  br label %return

return:                                           ; preds = %if.end, %if.then
  %0 = load i1, ptr %retval, align 1
  ret i1 %0
}