; Function Attrs: mustprogress nofree norecurse nosync nounwind willreturn memory(read, inaccessiblemem: none) uwtable
define internal noundef zeroext i1 @_ZNK7rocksdb12_GLOBAL__N_115HashLinkListRep15DynamicIterator5ValidEv(ptr nocapture noundef nonnull readonly align 8 dereferenceable(48) %this) unnamed_addr #14 align 2 {
entry:
  %skip_list_iter_ = getelementptr inbounds i8, ptr %this, i64 40
  %0 = load ptr, ptr %skip_list_iter_, align 8
  %cmp.i.not = icmp eq ptr %0, null
  %node_.i = getelementptr inbounds i8, ptr %0, i64 8
  %node_.i2 = getelementptr inbounds i8, ptr %this, i64 24
  %retval.0.in.in = select i1 %cmp.i.not, ptr %node_.i2, ptr %node_.i
  %retval.0.in = load ptr, ptr %retval.0.in.in, align 8
  %retval.0 = icmp ne ptr %retval.0.in, null
  ret i1 %retval.0
}